target datalayout = "e-m:e-p270:32:32-p271:32:32-p272:64:64-i64:64-i128:128-f80:128-n8:16:32:64-S128"
target triple = "x86_64-pc-linux-gnu"

%struct.dtTileCacheLayerHeader = type { i32, i32, i32, i32, i32, [3 x float], [3 x float], i16, i16, i8, i8, i8, i8, i8, i8 }
%struct.dtCompressedTile = type { i32, ptr, ptr, i32, ptr, i32, i32, ptr }
%struct.dtTileCacheParams = type { [3 x float], float, float, i32, i32, float, float, float, float, i32, i32 }
%class.dtTileCache = type { i32, i32, ptr, ptr, ptr, i32, i32, %struct.dtTileCacheParams, ptr, ptr, ptr, ptr, ptr, [64 x %"struct.dtTileCache::ObstacleRequest"], i32, [64 x i32], i32 }
%"struct.dtTileCache::ObstacleRequest" = type { i32, i32 }

@.str.9 = private unnamed_addr constant [11 x i8] c"(%d,%d)/%d\00", align 1
@.str.10 = private unnamed_addr constant [20 x i8] c"Compressed: %.1f kB\00", align 1
@.str.11 = private unnamed_addr constant [11 x i8] c"Raw:%.1fkB\00", align 1

; Function Attrs: mustprogress nounwind uwtable
define linkonce_odr dso_local noundef i32 @_Z8dtAlign4i(i32 noundef %0) #0 comdat {
  %2 = alloca i32, align 4
  store i32 %0, ptr %2, align 4
  %3 = load i32, ptr %2, align 4
  %4 = add nsw i32 %3, 3
  %5 = and i32 %4, -4
  ret i32 %5
}

; Function Attrs: mustprogress nounwind uwtable
define linkonce_odr dso_local noundef i32 @_Z9imguiRGBAhhhh(i8 noundef zeroext %0, i8 noundef zeroext %1, i8 noundef zeroext %2, i8 noundef zeroext %3) #0 comdat {
  %5 = alloca i8, align 1
  %6 = alloca i8, align 1
  %7 = alloca i8, align 1
  %8 = alloca i8, align 1
  store i8 %0, ptr %5, align 1
  store i8 %1, ptr %6, align 1
  store i8 %2, ptr %7, align 1
  store i8 %3, ptr %8, align 1
  %9 = load i8, ptr %5, align 1
  %10 = zext i8 %9 to i32
  %11 = load i8, ptr %6, align 1
  %12 = zext i8 %11 to i32
  %13 = shl i32 %12, 8
  %14 = or i32 %10, %13
  %15 = load i8, ptr %7, align 1
  %16 = zext i8 %15 to i32
  %17 = shl i32 %16, 16
  %18 = or i32 %14, %17
  %19 = load i8, ptr %8, align 1
  %20 = zext i8 %19 to i32
  %21 = shl i32 %20, 24
  %22 = or i32 %18, %21
  ret i32 %22
}

; Function Attrs: mustprogress uwtable
define internal noundef i32 @_ZL19calcLayerBufferSizeii(i32 noundef %0, i32 noundef %1) #5 {
  %3 = alloca i32, align 4
  %4 = alloca i32, align 4
  %5 = alloca i32, align 4
  %6 = alloca i32, align 4
  store i32 %0, ptr %3, align 4
  store i32 %1, ptr %4, align 4
  %7 = call noundef i32 @_Z8dtAlign4i(i32 noundef 56)
  store i32 %7, ptr %5, align 4
  %8 = load i32, ptr %3, align 4
  %9 = load i32, ptr %4, align 4
  %10 = mul nsw i32 %8, %9
  store i32 %10, ptr %6, align 4
  %11 = load i32, ptr %5, align 4
  %12 = load i32, ptr %6, align 4
  %13 = mul nsw i32 %12, 4
  %14 = add nsw i32 %11, %13
  ret i32 %14
}

; Function Attrs: mustprogress nounwind uwtable
define linkonce_odr dso_local noundef ptr @_ZNK11dtTileCache9getParamsEv(ptr noundef nonnull align 8 dereferenceable(912) %0) #0 comdat align 2 {
  %2 = alloca ptr, align 8
  store ptr %0, ptr %2, align 8
  %3 = load ptr, ptr %2, align 8
  %4 = getelementptr inbounds %class.dtTileCache, ptr %3, i32 0, i32 7
  ret ptr %4
}

; Function Attrs: mustprogress uwtable
define dso_local void @_Z17drawDetailOverlayPK11dtTileCacheiiPdS2_Pi(ptr noundef %0, i32 noundef %1, i32 noundef %2, ptr noundef %3, ptr noundef %4, ptr noundef %5) #5 {
  %7 = alloca ptr, align 8
  %8 = alloca i32, align 4
  %9 = alloca i32, align 4
  %10 = alloca ptr, align 8
  %11 = alloca ptr, align 8
  %12 = alloca ptr, align 8
  %13 = alloca [32 x i32], align 16
  %14 = alloca i32, align 4
  %15 = alloca i32, align 4
  %16 = alloca [128 x i8], align 16
  %17 = alloca i32, align 4
  %18 = alloca ptr, align 8
  %19 = alloca [3 x float], align 4
  %20 = alloca double, align 8
  %21 = alloca double, align 8
  %22 = alloca double, align 8
  store ptr %0, ptr %7, align 8
  store i32 %1, ptr %8, align 4
  store i32 %2, ptr %9, align 4
  store ptr %3, ptr %10, align 8
  store ptr %4, ptr %11, align 8
  store ptr %5, ptr %12, align 8
  %23 = load ptr, ptr %7, align 8
  %24 = load i32, ptr %8, align 4
  %25 = load i32, ptr %9, align 4
  %26 = getelementptr inbounds [32 x i32], ptr %13, i64 0, i64 0
  %27 = call noundef i32 @_ZNK11dtTileCache10getTilesAtEiiPji(ptr noundef nonnull align 8 dereferenceable(912) %23, i32 noundef %24, i32 noundef %25, ptr noundef %26, i32 noundef 32)
  store i32 %27, ptr %14, align 4
  %28 = load i32, ptr %14, align 4
  %29 = icmp ne i32 %28, 0
  br i1 %29, label %31, label %30

30:                                               ; preds = %6
  br label %160

31:                                               ; preds = %6
  %32 = load ptr, ptr %7, align 8
  %33 = call noundef ptr @_ZNK11dtTileCache9getParamsEv(ptr noundef nonnull align 8 dereferenceable(912) %32)
  %34 = getelementptr inbounds %struct.dtTileCacheParams, ptr %33, i32 0, i32 3
  %35 = load i32, ptr %34, align 4
  %36 = load ptr, ptr %7, align 8
  %37 = call noundef ptr @_ZNK11dtTileCache9getParamsEv(ptr noundef nonnull align 8 dereferenceable(912) %36)
  %38 = getelementptr inbounds %struct.dtTileCacheParams, ptr %37, i32 0, i32 4
  %39 = load i32, ptr %38, align 4
  %40 = call noundef i32 @_ZL19calcLayerBufferSizeii(i32 noundef %35, i32 noundef %39)
  store i32 %40, ptr %15, align 4
  store i32 0, ptr %17, align 4
  br label %41

41:                                               ; preds = %157, %31
  %42 = load i32, ptr %17, align 4
  %43 = load i32, ptr %14, align 4
  %44 = icmp slt i32 %42, %43
  br i1 %44, label %45, label %160

45:                                               ; preds = %41
  %46 = load ptr, ptr %7, align 8
  %47 = load i32, ptr %17, align 4
  %48 = sext i32 %47 to i64
  %49 = getelementptr inbounds [32 x i32], ptr %13, i64 0, i64 %48
  %50 = load i32, ptr %49, align 4
  %51 = call noundef ptr @_ZNK11dtTileCache12getTileByRefEj(ptr noundef nonnull align 8 dereferenceable(912) %46, i32 noundef %50)
  store ptr %51, ptr %18, align 8
  %52 = load ptr, ptr %18, align 8
  %53 = getelementptr inbounds %struct.dtCompressedTile, ptr %52, i32 0, i32 1
  %54 = load ptr, ptr %53, align 8
  %55 = getelementptr inbounds %struct.dtTileCacheLayerHeader, ptr %54, i32 0, i32 5
  %56 = getelementptr inbounds [3 x float], ptr %55, i64 0, i64 0
  %57 = load float, ptr %56, align 4
  %58 = load ptr, ptr %18, align 8
  %59 = getelementptr inbounds %struct.dtCompressedTile, ptr %58, i32 0, i32 1
  %60 = load ptr, ptr %59, align 8
  %61 = getelementptr inbounds %struct.dtTileCacheLayerHeader, ptr %60, i32 0, i32 6
  %62 = getelementptr inbounds [3 x float], ptr %61, i64 0, i64 0
  %63 = load float, ptr %62, align 4
  %64 = fadd float %57, %63
  %65 = fdiv float %64, 2.000000e+00
  %66 = getelementptr inbounds [3 x float], ptr %19, i64 0, i64 0
  store float %65, ptr %66, align 4
  %67 = load ptr, ptr %18, align 8
  %68 = getelementptr inbounds %struct.dtCompressedTile, ptr %67, i32 0, i32 1
  %69 = load ptr, ptr %68, align 8
  %70 = getelementptr inbounds %struct.dtTileCacheLayerHeader, ptr %69, i32 0, i32 5
  %71 = getelementptr inbounds [3 x float], ptr %70, i64 0, i64 1
  %72 = load float, ptr %71, align 4
  %73 = getelementptr inbounds [3 x float], ptr %19, i64 0, i64 1
  store float %72, ptr %73, align 4
  %74 = load ptr, ptr %18, align 8
  %75 = getelementptr inbounds %struct.dtCompressedTile, ptr %74, i32 0, i32 1
  %76 = load ptr, ptr %75, align 8
  %77 = getelementptr inbounds %struct.dtTileCacheLayerHeader, ptr %76, i32 0, i32 5
  %78 = getelementptr inbounds [3 x float], ptr %77, i64 0, i64 2
  %79 = load float, ptr %78, align 4
  %80 = load ptr, ptr %18, align 8
  %81 = getelementptr inbounds %struct.dtCompressedTile, ptr %80, i32 0, i32 1
  %82 = load ptr, ptr %81, align 8
  %83 = getelementptr inbounds %struct.dtTileCacheLayerHeader, ptr %82, i32 0, i32 6
  %84 = getelementptr inbounds [3 x float], ptr %83, i64 0, i64 2
  %85 = load float, ptr %84, align 4
  %86 = fadd float %79, %85
  %87 = fdiv float %86, 2.000000e+00
  %88 = getelementptr inbounds [3 x float], ptr %19, i64 0, i64 2
  store float %87, ptr %88, align 4
  %89 = getelementptr inbounds [3 x float], ptr %19, i64 0, i64 0
  %90 = load float, ptr %89, align 4
  %91 = fpext float %90 to double
  %92 = getelementptr inbounds [3 x float], ptr %19, i64 0, i64 1
  %93 = load float, ptr %92, align 4
  %94 = fpext float %93 to double
  %95 = getelementptr inbounds [3 x float], ptr %19, i64 0, i64 2
  %96 = load float, ptr %95, align 4
  %97 = fpext float %96 to double
  %98 = load ptr, ptr %11, align 8
  %99 = load ptr, ptr %10, align 8
  %100 = load ptr, ptr %12, align 8
  %101 = call i32 @gluProject(double noundef %91, double noundef %94, double noundef %97, ptr noundef %98, ptr noundef %99, ptr noundef %100, ptr noundef %20, ptr noundef %21, ptr noundef %22)
  %102 = icmp ne i32 %101, 0
  br i1 %102, label %103, label %156

103:                                              ; preds = %45
  %104 = getelementptr inbounds [128 x i8], ptr %16, i64 0, i64 0
  %105 = load ptr, ptr %18, align 8
  %106 = getelementptr inbounds %struct.dtCompressedTile, ptr %105, i32 0, i32 1
  %107 = load ptr, ptr %106, align 8
  %108 = getelementptr inbounds %struct.dtTileCacheLayerHeader, ptr %107, i32 0, i32 2
  %109 = load i32, ptr %108, align 4
  %110 = load ptr, ptr %18, align 8
  %111 = getelementptr inbounds %struct.dtCompressedTile, ptr %110, i32 0, i32 1
  %112 = load ptr, ptr %111, align 8
  %113 = getelementptr inbounds %struct.dtTileCacheLayerHeader, ptr %112, i32 0, i32 3
  %114 = load i32, ptr %113, align 4
  %115 = load ptr, ptr %18, align 8
  %116 = getelementptr inbounds %struct.dtCompressedTile, ptr %115, i32 0, i32 1
  %117 = load ptr, ptr %116, align 8
  %118 = getelementptr inbounds %struct.dtTileCacheLayerHeader, ptr %117, i32 0, i32 4
  %119 = load i32, ptr %118, align 4
  %120 = call i32 (ptr, i64, ptr, ...) @snprintf(ptr noundef %104, i64 noundef 128, ptr noundef @.str.9, i32 noundef %109, i32 noundef %114, i32 noundef %119) #10
  %121 = load double, ptr %20, align 8
  %122 = fptosi double %121 to i32
  %123 = load double, ptr %21, align 8
  %124 = fptosi double %123 to i32
  %125 = sub nsw i32 %124, 25
  %126 = getelementptr inbounds [128 x i8], ptr %16, i64 0, i64 0
  %127 = call noundef i32 @_Z9imguiRGBAhhhh(i8 noundef zeroext 0, i8 noundef zeroext 0, i8 noundef zeroext 0, i8 noundef zeroext -36)
  call void @_Z13imguiDrawTextiiiPKcj(i32 noundef %122, i32 noundef %125, i32 noundef 1, ptr noundef %126, i32 noundef %127)
  %128 = getelementptr inbounds [128 x i8], ptr %16, i64 0, i64 0
  %129 = load ptr, ptr %18, align 8
  %130 = getelementptr inbounds %struct.dtCompressedTile, ptr %129, i32 0, i32 5
  %131 = load i32, ptr %130, align 8
  %132 = sitofp i32 %131 to float
  %133 = fdiv float %132, 1.024000e+03
  %134 = fpext float %133 to double
  %135 = call i32 (ptr, i64, ptr, ...) @snprintf(ptr noundef %128, i64 noundef 128, ptr noundef @.str.10, double noundef %134) #10
  %136 = load double, ptr %20, align 8
  %137 = fptosi double %136 to i32
  %138 = load double, ptr %21, align 8
  %139 = fptosi double %138 to i32
  %140 = sub nsw i32 %139, 45
  %141 = getelementptr inbounds [128 x i8], ptr %16, i64 0, i64 0
  %142 = call noundef i32 @_Z9imguiRGBAhhhh(i8 noundef zeroext 0, i8 noundef zeroext 0, i8 noundef zeroext 0, i8 noundef zeroext -128)
  call void @_Z13imguiDrawTextiiiPKcj(i32 noundef %137, i32 noundef %140, i32 noundef 1, ptr noundef %141, i32 noundef %142)
  %143 = getelementptr inbounds [128 x i8], ptr %16, i64 0, i64 0
  %144 = load i32, ptr %15, align 4
  %145 = sitofp i32 %144 to float
  %146 = fdiv float %145, 1.024000e+03
  %147 = fpext float %146 to double
  %148 = call i32 (ptr, i64, ptr, ...) @snprintf(ptr noundef %143, i64 noundef 128, ptr noundef @.str.11, double noundef %147) #10
  %149 = load double, ptr %20, align 8
  %150 = fptosi double %149 to i32
  %151 = load double, ptr %21, align 8
  %152 = fptosi double %151 to i32
  %153 = sub nsw i32 %152, 65
  %154 = getelementptr inbounds [128 x i8], ptr %16, i64 0, i64 0
  %155 = call noundef i32 @_Z9imguiRGBAhhhh(i8 noundef zeroext 0, i8 noundef zeroext 0, i8 noundef zeroext 0, i8 noundef zeroext -128)
  call void @_Z13imguiDrawTextiiiPKcj(i32 noundef %150, i32 noundef %153, i32 noundef 1, ptr noundef %154, i32 noundef %155)
  br label %156

156:                                              ; preds = %103, %45
  br label %157

157:                                              ; preds = %156
  %158 = load i32, ptr %17, align 4
  %159 = add nsw i32 %158, 1
  store i32 %159, ptr %17, align 4
  br label %41, !llvm.loop !14

160:                                              ; preds = %41, %30
  ret void
}