; Function Attrs: mustprogress uwtable
define dso_local void @_Z17drawDetailOverlayPK11dtTileCacheiiPdS2_Pi(ptr noundef nonnull %0, i32 noundef %1, i32 noundef %2, ptr noundef %3, ptr noundef %4, ptr noundef %5) local_unnamed_addr #5 {
  %7 = alloca [32 x i32], align 16
  %8 = alloca [128 x i8], align 16
  %9 = alloca double, align 8
  %10 = alloca double, align 8
  %11 = alloca double, align 8
  %12 = call noundef i32 @_ZNK11dtTileCache10getTilesAtEiiPji(ptr noundef nonnull align 8 dereferenceable(912) %0, i32 noundef %1, i32 noundef %2, ptr noundef nonnull %7, i32 noundef 32)
  %13 = icmp sgt i32 %12, 0
  br i1 %13, label %.lr.ph, label %.loopexit

.lr.ph:                                           ; preds = %6
  %14 = getelementptr inbounds i8, ptr %0, i64 60
  %15 = load i32, ptr %14, align 4
  %16 = shl i32 %15, 2
  %17 = getelementptr inbounds i8, ptr %0, i64 64
  %18 = load i32, ptr %17, align 4
  %19 = mul i32 %16, %18
  %20 = add nsw i32 %19, 56
  %21 = sitofp i32 %20 to float
  %22 = fmul float %21, 0x3F50000000000000
  %23 = fpext float %22 to double
  %wide.trip.count = zext nneg i32 %12 to i64
  br label %24

24:                                               ; preds = %.lr.ph, %79
  %indvars.iv = phi i64 [ 0, %.lr.ph ], [ %indvars.iv.next, %79 ]
  %25 = getelementptr inbounds [32 x i32], ptr %7, i64 0, i64 %indvars.iv
  %26 = load i32, ptr %25, align 4
  %27 = call noundef ptr @_ZNK11dtTileCache12getTileByRefEj(ptr noundef nonnull align 8 dereferenceable(912) %0, i32 noundef %26)
  %28 = getelementptr inbounds i8, ptr %27, i64 8
  %29 = load ptr, ptr %28, align 8
  %30 = getelementptr inbounds i8, ptr %29, i64 20
  %31 = load float, ptr %30, align 4
  %32 = getelementptr inbounds i8, ptr %29, i64 32
  %33 = load float, ptr %32, align 4
  %34 = fadd float %31, %33
  %35 = fmul float %34, 5.000000e-01
  %36 = getelementptr inbounds i8, ptr %29, i64 24
  %37 = load float, ptr %36, align 4
  %38 = getelementptr inbounds i8, ptr %29, i64 28
  %39 = load float, ptr %38, align 4
  %40 = getelementptr inbounds i8, ptr %29, i64 40
  %41 = load float, ptr %40, align 4
  %42 = fadd float %39, %41
  %43 = fmul float %42, 5.000000e-01
  %44 = fpext float %35 to double
  %45 = fpext float %37 to double
  %46 = fpext float %43 to double
  %47 = call i32 @gluProject(double noundef %44, double noundef %45, double noundef %46, ptr noundef %4, ptr noundef %3, ptr noundef %5, ptr noundef nonnull %9, ptr noundef nonnull %10, ptr noundef nonnull %11)
  %.not24 = icmp eq i32 %47, 0
  br i1 %.not24, label %79, label %48

48:                                               ; preds = %24
  %49 = load ptr, ptr %28, align 8
  %50 = getelementptr inbounds i8, ptr %49, i64 8
  %51 = load i32, ptr %50, align 4
  %52 = getelementptr inbounds i8, ptr %49, i64 12
  %53 = load i32, ptr %52, align 4
  %54 = getelementptr inbounds i8, ptr %49, i64 16
  %55 = load i32, ptr %54, align 4
  %56 = call i32 (ptr, i64, ptr, ...) @snprintf(ptr noundef nonnull dereferenceable(1) %8, i64 noundef 128, ptr noundef nonnull @.str.9, i32 noundef %51, i32 noundef %53, i32 noundef %55) #14
  %57 = load double, ptr %9, align 8
  %58 = fptosi double %57 to i32
  %59 = load double, ptr %10, align 8
  %60 = fptosi double %59 to i32
  %61 = add nsw i32 %60, -25
  call void @_Z13imguiDrawTextiiiPKcj(i32 noundef %58, i32 noundef %61, i32 noundef 1, ptr noundef nonnull %8, i32 noundef -603979776)
  %62 = getelementptr inbounds i8, ptr %27, i64 40
  %63 = load i32, ptr %62, align 8
  %64 = sitofp i32 %63 to float
  %65 = fmul float %64, 0x3F50000000000000
  %66 = fpext float %65 to double
  %67 = call i32 (ptr, i64, ptr, ...) @snprintf(ptr noundef nonnull dereferenceable(1) %8, i64 noundef 128, ptr noundef nonnull @.str.10, double noundef %66) #14
  %68 = load double, ptr %9, align 8
  %69 = fptosi double %68 to i32
  %70 = load double, ptr %10, align 8
  %71 = fptosi double %70 to i32
  %72 = add nsw i32 %71, -45
  call void @_Z13imguiDrawTextiiiPKcj(i32 noundef %69, i32 noundef %72, i32 noundef 1, ptr noundef nonnull %8, i32 noundef -2147483648)
  %73 = call i32 (ptr, i64, ptr, ...) @snprintf(ptr noundef nonnull dereferenceable(1) %8, i64 noundef 128, ptr noundef nonnull @.str.11, double noundef %23) #14
  %74 = load double, ptr %9, align 8
  %75 = fptosi double %74 to i32
  %76 = load double, ptr %10, align 8
  %77 = fptosi double %76 to i32
  %78 = add nsw i32 %77, -65
  call void @_Z13imguiDrawTextiiiPKcj(i32 noundef %75, i32 noundef %78, i32 noundef 1, ptr noundef nonnull %8, i32 noundef -2147483648)
  br label %79

79:                                               ; preds = %24, %48
  %indvars.iv.next = add nuw nsw i64 %indvars.iv, 1
  %exitcond.not = icmp eq i64 %indvars.iv.next, %wide.trip.count
  br i1 %exitcond.not, label %.loopexit, label %24, !llvm.loop !14

.loopexit:                                        ; preds = %79, %6
  ret void
}